; Function Attrs: nounwind uwtable
define ptr @l_Lean_Elab_Term_mkFreshBinderName___at___private_Lean_Elab_Binders_0__Lean_Elab_Term_expandBinderIdent___spec__2___rarg(ptr noundef %0, ptr noundef %1, ptr noundef %2) #1 {
  %4 = load ptr, ptr @l_Lean_Elab_Term_mkFreshBinderName___at___private_Lean_Elab_Binders_0__Lean_Elab_Term_expandBinderIdent___spec__2___rarg___closed__2, align 8, !tbaa !4
  tail call void @lean_inc_heartbeat() #6
  %5 = tail call noalias ptr @mi_malloc_small(i64 noundef 32) #6
  %6 = icmp eq ptr %5, null
  br i1 %6, label %7, label %lean_alloc_closure.exit

7:                                                ; preds = %3
  tail call void @lean_internal_panic_out_of_memory() #7
  unreachable

lean_alloc_closure.exit:                          ; preds = %3
  %8 = getelementptr inbounds nuw i8, ptr %5, i64 4
  store i32 1, ptr %5, align 4, !tbaa !8
  store i32 -184549344, ptr %8, align 4
  %9 = getelementptr inbounds nuw i8, ptr %5, i64 8
  store ptr @l_Lean_Elab_Term_mkFreshBinderName___at___private_Lean_Elab_Binders_0__Lean_Elab_Term_expandBinderIdent___spec__2___rarg___lambda__1___boxed, ptr %9, align 8, !tbaa !4
  %10 = getelementptr inbounds nuw i8, ptr %5, i64 16
  store i16 4, ptr %10, align 8, !tbaa !15
  %11 = getelementptr inbounds nuw i8, ptr %5, i64 18
  store i16 1, ptr %11, align 2, !tbaa !15
  %12 = getelementptr inbounds nuw i8, ptr %5, i64 24
  store ptr %4, ptr %12, align 8, !tbaa !4
  %13 = tail call ptr @l_Lean_Core_withFreshMacroScope___rarg(ptr noundef nonnull %5, ptr noundef %0, ptr noundef %1, ptr noundef %2) #6
  ret ptr %13
}